target datalayout = "e-m:e-p270:32:32-p271:32:32-p272:64:64-i64:64-i128:128-f80:128-n8:16:32:64-S128"
target triple = "x86_64-pc-linux-gnu"

%"class.std::uniform_real_distribution" = type { %"struct.std::uniform_real_distribution<>::param_type" }
%"struct.std::uniform_real_distribution<>::param_type" = type { double, double }
%"class.std::mersenne_twister_engine" = type { [624 x i64], i64 }
%"struct.std::__detail::_Adaptor" = type { ptr }

@_ZN3g2oL12_uniformRealE = internal global %"class.std::uniform_real_distribution" zeroinitializer, align 8
@_ZN3g2oL9_gen_realE = internal global %"class.std::mersenne_twister_engine" zeroinitializer, align 8

; Function Attrs: inlinehint mustprogress nounwind uwtable
define linkonce_odr noundef nonnull align 8 dereferenceable(8) ptr @_ZSt3maxImERKT_S2_S2_(ptr noundef nonnull align 8 dereferenceable(8) %0, ptr noundef nonnull align 8 dereferenceable(8) %1) #6 comdat {
  %3 = alloca ptr, align 8
  %4 = alloca ptr, align 8
  %5 = alloca ptr, align 8
  store ptr %0, ptr %4, align 8, !tbaa !55
  store ptr %1, ptr %5, align 8, !tbaa !55
  %6 = load ptr, ptr %4, align 8, !tbaa !55
  %7 = load i64, ptr %6, align 8, !tbaa !40
  %8 = load ptr, ptr %5, align 8, !tbaa !55
  %9 = load i64, ptr %8, align 8, !tbaa !40
  %10 = icmp ult i64 %7, %9
  br i1 %10, label %11, label %13

11:                                               ; preds = %2
  %12 = load ptr, ptr %5, align 8, !tbaa !55
  store ptr %12, ptr %3, align 8
  br label %15

13:                                               ; preds = %2
  %14 = load ptr, ptr %4, align 8, !tbaa !55
  store ptr %14, ptr %3, align 8
  br label %15

15:                                               ; preds = %13, %11
  %16 = load ptr, ptr %3, align 8
  ret ptr %16
}

; Function Attrs: inlinehint mustprogress nounwind uwtable
define linkonce_odr noundef x86_fp80 @_ZSt3loge(x86_fp80 noundef %0) #6 comdat {
  %2 = alloca x86_fp80, align 16
  store x86_fp80 %0, ptr %2, align 16, !tbaa !50
  %3 = load x86_fp80, ptr %2, align 16, !tbaa !50
  %4 = call x86_fp80 @logl(x86_fp80 noundef %3) #9, !tbaa !53
  ret x86_fp80 %4
}

; Function Attrs: mustprogress nounwind uwtable
define linkonce_odr noundef i64 @_ZNSt23mersenne_twister_engineImLm32ELm624ELm397ELm31ELm2567483615ELm11ELm4294967295ELm7ELm2636928640ELm15ELm4022730752ELm18ELm1812433253EE3minEv() #1 comdat align 2 {
  ret i64 0
}

; Function Attrs: mustprogress nounwind uwtable
define linkonce_odr noundef i64 @_ZNSt23mersenne_twister_engineImLm32ELm624ELm397ELm31ELm2567483615ELm11ELm4294967295ELm7ELm2636928640ELm15ELm4022730752ELm18ELm1812433253EE3maxEv() #1 comdat align 2 {
  ret i64 4294967295
}

; Function Attrs: mustprogress uwtable
define linkonce_odr noundef double @_ZSt18generate_canonicalIdLm53ESt23mersenne_twister_engineImLm32ELm624ELm397ELm31ELm2567483615ELm11ELm4294967295ELm7ELm2636928640ELm15ELm4022730752ELm18ELm1812433253EEET_RT1_(ptr noundef nonnull align 8 dereferenceable(5000) %0) #3 comdat {
  %2 = alloca ptr, align 8
  %3 = alloca i64, align 8
  %4 = alloca x86_fp80, align 16
  %5 = alloca i64, align 8
  %6 = alloca i64, align 8
  %7 = alloca i64, align 8
  %8 = alloca i64, align 8
  %9 = alloca double, align 8
  %10 = alloca double, align 8
  %11 = alloca double, align 8
  %12 = alloca i64, align 8
  store ptr %0, ptr %2, align 8, !tbaa !25
  call void @llvm.lifetime.start.p0(i64 8, ptr %3) #9
  store i64 53, ptr %3, align 8, !tbaa !40
  call void @llvm.lifetime.start.p0(i64 16, ptr %4) #9
  %13 = call noundef i64 @_ZNSt23mersenne_twister_engineImLm32ELm624ELm397ELm31ELm2567483615ELm11ELm4294967295ELm7ELm2636928640ELm15ELm4022730752ELm18ELm1812433253EE3maxEv()
  %14 = uitofp i64 %13 to x86_fp80
  %15 = call noundef i64 @_ZNSt23mersenne_twister_engineImLm32ELm624ELm397ELm31ELm2567483615ELm11ELm4294967295ELm7ELm2636928640ELm15ELm4022730752ELm18ELm1812433253EE3minEv()
  %16 = uitofp i64 %15 to x86_fp80
  %17 = fsub x86_fp80 %14, %16
  %18 = fadd x86_fp80 %17, 0xK3FFF8000000000000000
  store x86_fp80 %18, ptr %4, align 16, !tbaa !50
  call void @llvm.lifetime.start.p0(i64 8, ptr %5) #9
  %19 = load x86_fp80, ptr %4, align 16, !tbaa !50
  %20 = call noundef x86_fp80 @_ZSt3loge(x86_fp80 noundef %19)
  %21 = call noundef x86_fp80 @_ZSt3loge(x86_fp80 noundef 0xK40008000000000000000)
  %22 = fdiv x86_fp80 %20, %21
  %23 = fptoui x86_fp80 %22 to i64
  store i64 %23, ptr %5, align 8, !tbaa !40
  call void @llvm.lifetime.start.p0(i64 8, ptr %6) #9
  call void @llvm.lifetime.start.p0(i64 8, ptr %7) #9
  store i64 1, ptr %7, align 8, !tbaa !40
  call void @llvm.lifetime.start.p0(i64 8, ptr %8) #9
  %24 = load i64, ptr %5, align 8, !tbaa !40
  %25 = add i64 53, %24
  %26 = sub i64 %25, 1
  %27 = load i64, ptr %5, align 8, !tbaa !40
  %28 = udiv i64 %26, %27
  store i64 %28, ptr %8, align 8, !tbaa !40
  %29 = call noundef nonnull align 8 dereferenceable(8) ptr @_ZSt3maxImERKT_S2_S2_(ptr noundef nonnull align 8 dereferenceable(8) %7, ptr noundef nonnull align 8 dereferenceable(8) %8)
  %30 = load i64, ptr %29, align 8, !tbaa !40
  call void @llvm.lifetime.end.p0(i64 8, ptr %8) #9
  call void @llvm.lifetime.end.p0(i64 8, ptr %7) #9
  store i64 %30, ptr %6, align 8, !tbaa !40
  call void @llvm.lifetime.start.p0(i64 8, ptr %9) #9
  call void @llvm.lifetime.start.p0(i64 8, ptr %10) #9
  store double 0.000000e+00, ptr %10, align 8, !tbaa !16
  call void @llvm.lifetime.start.p0(i64 8, ptr %11) #9
  store double 1.000000e+00, ptr %11, align 8, !tbaa !16
  call void @llvm.lifetime.start.p0(i64 8, ptr %12) #9
  %31 = load i64, ptr %6, align 8, !tbaa !40
  store i64 %31, ptr %12, align 8, !tbaa !40
  br label %32

32:                                               ; preds = %50, %1
  %33 = load i64, ptr %12, align 8, !tbaa !40
  %34 = icmp ne i64 %33, 0
  br i1 %34, label %36, label %35

35:                                               ; preds = %32
  call void @llvm.lifetime.end.p0(i64 8, ptr %12) #9
  br label %53

36:                                               ; preds = %32
  %37 = load ptr, ptr %2, align 8, !tbaa !25
  %38 = call noundef i64 @_ZNSt23mersenne_twister_engineImLm32ELm624ELm397ELm31ELm2567483615ELm11ELm4294967295ELm7ELm2636928640ELm15ELm4022730752ELm18ELm1812433253EEclEv(ptr noundef nonnull align 8 dereferenceable(5000) %37)
  %39 = call noundef i64 @_ZNSt23mersenne_twister_engineImLm32ELm624ELm397ELm31ELm2567483615ELm11ELm4294967295ELm7ELm2636928640ELm15ELm4022730752ELm18ELm1812433253EE3minEv()
  %40 = sub i64 %38, %39
  %41 = uitofp i64 %40 to double
  %42 = load double, ptr %11, align 8, !tbaa !16
  %43 = load double, ptr %10, align 8, !tbaa !16
  %44 = call double @llvm.fmuladd.f64(double %41, double %42, double %43)
  store double %44, ptr %10, align 8, !tbaa !16
  %45 = load x86_fp80, ptr %4, align 16, !tbaa !50
  %46 = load double, ptr %11, align 8, !tbaa !16
  %47 = fpext double %46 to x86_fp80
  %48 = fmul x86_fp80 %47, %45
  %49 = fptrunc x86_fp80 %48 to double
  store double %49, ptr %11, align 8, !tbaa !16
  br label %50

50:                                               ; preds = %36
  %51 = load i64, ptr %12, align 8, !tbaa !40
  %52 = add i64 %51, -1
  store i64 %52, ptr %12, align 8, !tbaa !40
  br label %32, !llvm.loop !52

53:                                               ; preds = %35
  %54 = load double, ptr %10, align 8, !tbaa !16
  %55 = load double, ptr %11, align 8, !tbaa !16
  %56 = fdiv double %54, %55
  store double %56, ptr %9, align 8, !tbaa !16
  %57 = load double, ptr %9, align 8, !tbaa !16
  %58 = fcmp oge double %57, 1.000000e+00
  %59 = zext i1 %58 to i64
  %60 = call i64 @llvm.expect.i64(i64 %59, i64 0)
  %61 = icmp ne i64 %60, 0
  br i1 %61, label %62, label %64

62:                                               ; preds = %53
  %63 = call double @nextafter(double noundef 1.000000e+00, double noundef 0.000000e+00) #9, !tbaa !53
  store double %63, ptr %9, align 8, !tbaa !16
  br label %64

64:                                               ; preds = %62, %53
  %65 = load double, ptr %9, align 8, !tbaa !16
  call void @llvm.lifetime.end.p0(i64 8, ptr %11) #9
  call void @llvm.lifetime.end.p0(i64 8, ptr %10) #9
  call void @llvm.lifetime.end.p0(i64 8, ptr %9) #9
  call void @llvm.lifetime.end.p0(i64 8, ptr %6) #9
  call void @llvm.lifetime.end.p0(i64 8, ptr %5) #9
  call void @llvm.lifetime.end.p0(i64 16, ptr %4) #9
  call void @llvm.lifetime.end.p0(i64 8, ptr %3) #9
  ret double %65
}

; Function Attrs: mustprogress nounwind uwtable
define linkonce_odr noundef double @_ZNKSt25uniform_real_distributionIdE10param_type1aEv(ptr noundef nonnull align 8 dereferenceable(16) %0) #1 comdat align 2 {
  %2 = alloca ptr, align 8
  store ptr %0, ptr %2, align 8, !tbaa !35
  %3 = load ptr, ptr %2, align 8
  %4 = getelementptr inbounds nuw %"struct.std::uniform_real_distribution<>::param_type", ptr %3, i32 0, i32 0
  %5 = load double, ptr %4, align 8, !tbaa !37
  ret double %5
}

; Function Attrs: mustprogress nounwind uwtable
define linkonce_odr noundef double @_ZNKSt25uniform_real_distributionIdE10param_type1bEv(ptr noundef nonnull align 8 dereferenceable(16) %0) #1 comdat align 2 {
  %2 = alloca ptr, align 8
  store ptr %0, ptr %2, align 8, !tbaa !35
  %3 = load ptr, ptr %2, align 8
  %4 = getelementptr inbounds nuw %"struct.std::uniform_real_distribution<>::param_type", ptr %3, i32 0, i32 1
  %5 = load double, ptr %4, align 8, !tbaa !39
  ret double %5
}

; Function Attrs: mustprogress uwtable
define linkonce_odr noundef double @_ZNSt8__detail8_AdaptorISt23mersenne_twister_engineImLm32ELm624ELm397ELm31ELm2567483615ELm11ELm4294967295ELm7ELm2636928640ELm15ELm4022730752ELm18ELm1812433253EEdEclEv(ptr noundef nonnull align 8 dereferenceable(8) %0) #3 comdat align 2 {
  %2 = alloca ptr, align 8
  store ptr %0, ptr %2, align 8, !tbaa !46
  %3 = load ptr, ptr %2, align 8
  %4 = getelementptr inbounds nuw %"struct.std::__detail::_Adaptor", ptr %3, i32 0, i32 0
  %5 = load ptr, ptr %4, align 8, !tbaa !48
  %6 = call noundef double @_ZSt18generate_canonicalIdLm53ESt23mersenne_twister_engineImLm32ELm624ELm397ELm31ELm2567483615ELm11ELm4294967295ELm7ELm2636928640ELm15ELm4022730752ELm18ELm1812433253EEET_RT1_(ptr noundef nonnull align 8 dereferenceable(5000) %5)
  ret double %6
}

; Function Attrs: mustprogress nounwind uwtable
define linkonce_odr void @_ZNSt8__detail8_AdaptorISt23mersenne_twister_engineImLm32ELm624ELm397ELm31ELm2567483615ELm11ELm4294967295ELm7ELm2636928640ELm15ELm4022730752ELm18ELm1812433253EEdEC2ERS2_(ptr noundef nonnull align 8 dereferenceable(8) %0, ptr noundef nonnull align 8 dereferenceable(5000) %1) unnamed_addr #1 comdat align 2 {
  %3 = alloca ptr, align 8
  %4 = alloca ptr, align 8
  store ptr %0, ptr %3, align 8, !tbaa !46
  store ptr %1, ptr %4, align 8, !tbaa !25
  %5 = load ptr, ptr %3, align 8
  %6 = getelementptr inbounds nuw %"struct.std::__detail::_Adaptor", ptr %5, i32 0, i32 0
  %7 = load ptr, ptr %4, align 8, !tbaa !25
  store ptr %7, ptr %6, align 8, !tbaa !25
  ret void
}

; Function Attrs: mustprogress uwtable
define linkonce_odr noundef double @_ZNSt25uniform_real_distributionIdEclISt23mersenne_twister_engineImLm32ELm624ELm397ELm31ELm2567483615ELm11ELm4294967295ELm7ELm2636928640ELm15ELm4022730752ELm18ELm1812433253EEEEdRT_RKNS0_10param_typeE(ptr noundef nonnull align 8 dereferenceable(16) %0, ptr noundef nonnull align 8 dereferenceable(5000) %1, ptr noundef nonnull align 8 dereferenceable(16) %2) #3 comdat align 2 {
  %4 = alloca ptr, align 8
  %5 = alloca ptr, align 8
  %6 = alloca ptr, align 8
  %7 = alloca %"struct.std::__detail::_Adaptor", align 8
  store ptr %0, ptr %4, align 8, !tbaa !23
  store ptr %1, ptr %5, align 8, !tbaa !25
  store ptr %2, ptr %6, align 8, !tbaa !35
  call void @llvm.lifetime.start.p0(i64 8, ptr %7) #9
  %8 = load ptr, ptr %5, align 8, !tbaa !25
  call void @_ZNSt8__detail8_AdaptorISt23mersenne_twister_engineImLm32ELm624ELm397ELm31ELm2567483615ELm11ELm4294967295ELm7ELm2636928640ELm15ELm4022730752ELm18ELm1812433253EEdEC2ERS2_(ptr noundef nonnull align 8 dereferenceable(8) %7, ptr noundef nonnull align 8 dereferenceable(5000) %8)
  %9 = call noundef double @_ZNSt8__detail8_AdaptorISt23mersenne_twister_engineImLm32ELm624ELm397ELm31ELm2567483615ELm11ELm4294967295ELm7ELm2636928640ELm15ELm4022730752ELm18ELm1812433253EEdEclEv(ptr noundef nonnull align 8 dereferenceable(8) %7)
  %10 = load ptr, ptr %6, align 8, !tbaa !35
  %11 = call noundef double @_ZNKSt25uniform_real_distributionIdE10param_type1bEv(ptr noundef nonnull align 8 dereferenceable(16) %10)
  %12 = load ptr, ptr %6, align 8, !tbaa !35
  %13 = call noundef double @_ZNKSt25uniform_real_distributionIdE10param_type1aEv(ptr noundef nonnull align 8 dereferenceable(16) %12)
  %14 = fsub double %11, %13
  %15 = load ptr, ptr %6, align 8, !tbaa !35
  %16 = call noundef double @_ZNKSt25uniform_real_distributionIdE10param_type1aEv(ptr noundef nonnull align 8 dereferenceable(16) %15)
  %17 = call double @llvm.fmuladd.f64(double %9, double %14, double %16)
  call void @llvm.lifetime.end.p0(i64 8, ptr %7) #9
  ret double %17
}

; Function Attrs: mustprogress uwtable
define linkonce_odr noundef double @_ZNSt25uniform_real_distributionIdEclISt23mersenne_twister_engineImLm32ELm624ELm397ELm31ELm2567483615ELm11ELm4294967295ELm7ELm2636928640ELm15ELm4022730752ELm18ELm1812433253EEEEdRT_(ptr noundef nonnull align 8 dereferenceable(16) %0, ptr noundef nonnull align 8 dereferenceable(5000) %1) #3 comdat align 2 {
  %3 = alloca ptr, align 8
  %4 = alloca ptr, align 8
  store ptr %0, ptr %3, align 8, !tbaa !23
  store ptr %1, ptr %4, align 8, !tbaa !25
  %5 = load ptr, ptr %3, align 8
  %6 = load ptr, ptr %4, align 8, !tbaa !25
  %7 = getelementptr inbounds nuw %"class.std::uniform_real_distribution", ptr %5, i32 0, i32 0
  %8 = call noundef double @_ZNSt25uniform_real_distributionIdEclISt23mersenne_twister_engineImLm32ELm624ELm397ELm31ELm2567483615ELm11ELm4294967295ELm7ELm2636928640ELm15ELm4022730752ELm18ELm1812433253EEEEdRT_RKNS0_10param_typeE(ptr noundef nonnull align 8 dereferenceable(16) %5, ptr noundef nonnull align 8 dereferenceable(5000) %6, ptr noundef nonnull align 8 dereferenceable(16) %7)
  ret double %8
}

; Function Attrs: mustprogress uwtable
define noundef double @_ZN3g2o13sampleUniformEddPSt23mersenne_twister_engineImLm32ELm624ELm397ELm31ELm2567483615ELm11ELm4294967295ELm7ELm2636928640ELm15ELm4022730752ELm18ELm1812433253EE(double noundef %0, double noundef %1, ptr noundef %2) #3 {
  %4 = alloca double, align 8
  %5 = alloca double, align 8
  %6 = alloca double, align 8
  %7 = alloca ptr, align 8
  store double %0, ptr %5, align 8, !tbaa !16
  store double %1, ptr %6, align 8, !tbaa !16
  store ptr %2, ptr %7, align 8, !tbaa !25
  %8 = load ptr, ptr %7, align 8, !tbaa !25
  %9 = icmp ne ptr %8, null
  br i1 %9, label %10, label %18

10:                                               ; preds = %3
  %11 = load ptr, ptr %7, align 8, !tbaa !25
  %12 = call noundef double @_ZNSt25uniform_real_distributionIdEclISt23mersenne_twister_engineImLm32ELm624ELm397ELm31ELm2567483615ELm11ELm4294967295ELm7ELm2636928640ELm15ELm4022730752ELm18ELm1812433253EEEEdRT_(ptr noundef nonnull align 8 dereferenceable(16) @_ZN3g2oL12_uniformRealE, ptr noundef nonnull align 8 dereferenceable(5000) %11)
  %13 = load double, ptr %6, align 8, !tbaa !16
  %14 = load double, ptr %5, align 8, !tbaa !16
  %15 = fsub double %13, %14
  %16 = load double, ptr %5, align 8, !tbaa !16
  %17 = call double @llvm.fmuladd.f64(double %12, double %15, double %16)
  store double %17, ptr %4, align 8
  br label %25

18:                                               ; preds = %3
  %19 = call noundef double @_ZNSt25uniform_real_distributionIdEclISt23mersenne_twister_engineImLm32ELm624ELm397ELm31ELm2567483615ELm11ELm4294967295ELm7ELm2636928640ELm15ELm4022730752ELm18ELm1812433253EEEEdRT_(ptr noundef nonnull align 8 dereferenceable(16) @_ZN3g2oL12_uniformRealE, ptr noundef nonnull align 8 dereferenceable(5000) @_ZN3g2oL9_gen_realE)
  %20 = load double, ptr %6, align 8, !tbaa !16
  %21 = load double, ptr %5, align 8, !tbaa !16
  %22 = fsub double %20, %21
  %23 = load double, ptr %5, align 8, !tbaa !16
  %24 = call double @llvm.fmuladd.f64(double %19, double %22, double %23)
  store double %24, ptr %4, align 8
  br label %25

25:                                               ; preds = %18, %10
  %26 = load double, ptr %4, align 8
  ret double %26
}