; Function Attrs: mustprogress uwtable
define noundef double @_ZN3g2o13sampleUniformEddPSt23mersenne_twister_engineImLm32ELm624ELm397ELm31ELm2567483615ELm11ELm4294967295ELm7ELm2636928640ELm15ELm4022730752ELm18ELm1812433253EE(double noundef %0, double noundef %1, ptr noundef %2) local_unnamed_addr #1 {
  %.not = icmp eq ptr %2, null
  %4 = tail call x86_fp80 @llvm.log.f80(x86_fp80 0xK401F8000000000000000), !tbaa !3
  %5 = tail call x86_fp80 @llvm.log.f80(x86_fp80 0xK40008000000000000000), !tbaa !3
  %6 = fdiv x86_fp80 %4, %5
  %7 = fptoui x86_fp80 %6 to i64
  %8 = add i64 %7, 52
  %9 = udiv i64 %8, %7
  %spec.select.i.i.i.i10 = tail call i64 @llvm.umax.i64(i64 %9, i64 1)
  br i1 %.not, label %select.unfold.i.i.i.i11, label %select.unfold.i.i.i.i

10:                                               ; preds = %select.unfold.i.i.i.i
  %11 = fdiv double %15, %18
  %12 = fcmp ult double %11, 1.000000e+00
  br i1 %12, label %_ZNSt25uniform_real_distributionIdEclISt23mersenne_twister_engineImLm32ELm624ELm397ELm31ELm2567483615ELm11ELm4294967295ELm7ELm2636928640ELm15ELm4022730752ELm18ELm1812433253EEEEdRT_.exit, label %_ZNSt25uniform_real_distributionIdEclISt23mersenne_twister_engineImLm32ELm624ELm397ELm31ELm2567483615ELm11ELm4294967295ELm7ELm2636928640ELm15ELm4022730752ELm18ELm1812433253EEEEdRT_.exit.sink.split, !prof !7

select.unfold.i.i.i.i:                            ; preds = %3, %select.unfold.i.i.i.i
  %.023.i.i.i.i = phi i64 [ %19, %select.unfold.i.i.i.i ], [ %spec.select.i.i.i.i10, %3 ]
  %.01422.i.i.i.i = phi double [ %18, %select.unfold.i.i.i.i ], [ 1.000000e+00, %3 ]
  %.01521.i.i.i.i = phi double [ %15, %select.unfold.i.i.i.i ], [ 0.000000e+00, %3 ]
  %13 = tail call noundef i64 @_ZNSt23mersenne_twister_engineImLm32ELm624ELm397ELm31ELm2567483615ELm11ELm4294967295ELm7ELm2636928640ELm15ELm4022730752ELm18ELm1812433253EEclEv(ptr noundef nonnull align 8 dereferenceable(5000) %2)
  %14 = uitofp i64 %13 to double
  %15 = tail call double @llvm.fmuladd.f64(double %14, double %.01422.i.i.i.i, double %.01521.i.i.i.i)
  %16 = fpext double %.01422.i.i.i.i to x86_fp80
  %17 = fmul x86_fp80 %16, 0xK401F8000000000000000
  %18 = fptrunc x86_fp80 %17 to double
  %19 = add i64 %.023.i.i.i.i, -1
  %.not.i.i.i.i = icmp eq i64 %19, 0
  br i1 %.not.i.i.i.i, label %10, label %select.unfold.i.i.i.i, !llvm.loop !8

20:                                               ; preds = %select.unfold.i.i.i.i11
  %21 = fdiv double %25, %28
  %22 = fcmp ult double %21, 1.000000e+00
  br i1 %22, label %_ZNSt25uniform_real_distributionIdEclISt23mersenne_twister_engineImLm32ELm624ELm397ELm31ELm2567483615ELm11ELm4294967295ELm7ELm2636928640ELm15ELm4022730752ELm18ELm1812433253EEEEdRT_.exit, label %_ZNSt25uniform_real_distributionIdEclISt23mersenne_twister_engineImLm32ELm624ELm397ELm31ELm2567483615ELm11ELm4294967295ELm7ELm2636928640ELm15ELm4022730752ELm18ELm1812433253EEEEdRT_.exit.sink.split, !prof !7

select.unfold.i.i.i.i11:                          ; preds = %3, %select.unfold.i.i.i.i11
  %.023.i.i.i.i12 = phi i64 [ %29, %select.unfold.i.i.i.i11 ], [ %spec.select.i.i.i.i10, %3 ]
  %.01422.i.i.i.i13 = phi double [ %28, %select.unfold.i.i.i.i11 ], [ 1.000000e+00, %3 ]
  %.01521.i.i.i.i14 = phi double [ %25, %select.unfold.i.i.i.i11 ], [ 0.000000e+00, %3 ]
  %23 = tail call noundef i64 @_ZNSt23mersenne_twister_engineImLm32ELm624ELm397ELm31ELm2567483615ELm11ELm4294967295ELm7ELm2636928640ELm15ELm4022730752ELm18ELm1812433253EEclEv(ptr noundef nonnull align 8 dereferenceable(5000) @_ZN3g2oL9_gen_realE)
  %24 = uitofp i64 %23 to double
  %25 = tail call double @llvm.fmuladd.f64(double %24, double %.01422.i.i.i.i13, double %.01521.i.i.i.i14)
  %26 = fpext double %.01422.i.i.i.i13 to x86_fp80
  %27 = fmul x86_fp80 %26, 0xK401F8000000000000000
  %28 = fptrunc x86_fp80 %27 to double
  %29 = add i64 %.023.i.i.i.i12, -1
  %.not.i.i.i.i15 = icmp eq i64 %29, 0
  br i1 %.not.i.i.i.i15, label %20, label %select.unfold.i.i.i.i11, !llvm.loop !8

_ZNSt25uniform_real_distributionIdEclISt23mersenne_twister_engineImLm32ELm624ELm397ELm31ELm2567483615ELm11ELm4294967295ELm7ELm2636928640ELm15ELm4022730752ELm18ELm1812433253EEEEdRT_.exit.sink.split: ; preds = %20, %10
  %30 = tail call double @nextafter(double noundef 1.000000e+00, double noundef 0.000000e+00) #7, !tbaa !3
  br label %_ZNSt25uniform_real_distributionIdEclISt23mersenne_twister_engineImLm32ELm624ELm397ELm31ELm2567483615ELm11ELm4294967295ELm7ELm2636928640ELm15ELm4022730752ELm18ELm1812433253EEEEdRT_.exit

_ZNSt25uniform_real_distributionIdEclISt23mersenne_twister_engineImLm32ELm624ELm397ELm31ELm2567483615ELm11ELm4294967295ELm7ELm2636928640ELm15ELm4022730752ELm18ELm1812433253EEEEdRT_.exit: ; preds = %_ZNSt25uniform_real_distributionIdEclISt23mersenne_twister_engineImLm32ELm624ELm397ELm31ELm2567483615ELm11ELm4294967295ELm7ELm2636928640ELm15ELm4022730752ELm18ELm1812433253EEEEdRT_.exit.sink.split, %20, %10
  %.016.i.i.i.i16.sink = phi double [ %11, %10 ], [ %21, %20 ], [ %30, %_ZNSt25uniform_real_distributionIdEclISt23mersenne_twister_engineImLm32ELm624ELm397ELm31ELm2567483615ELm11ELm4294967295ELm7ELm2636928640ELm15ELm4022730752ELm18ELm1812433253EEEEdRT_.exit.sink.split ]
  %31 = load double, ptr @_ZN3g2oL12_uniformRealE.1, align 8, !tbaa !10
  %32 = tail call noundef double @llvm.fmuladd.f64(double %.016.i.i.i.i16.sink, double %31, double 0.000000e+00)
  %33 = fsub double %1, %0
  %34 = tail call double @llvm.fmuladd.f64(double %32, double %33, double %0)
  ret double %34
}